target datalayout = "e-m:e-p270:32:32-p271:32:32-p272:64:64-i64:64-i128:128-f80:128-n8:16:32:64-S128"
target triple = "x86_64-pc-linux-gnu"

%struct.ArchivableStaticFieldInfo = type <{ ptr, ptr, ptr, i32, i8, [3 x i8] }>
%class.ThreadShadow = type <{ ptr, ptr, ptr, i32, [4 x i8] }>
%class.ResourceHashtableBase.28 = type <{ %class.FixedResourceHashtableStorage.29, i32, [4 x i8] }>
%class.FixedResourceHashtableStorage.29 = type { [137 x ptr] }
%class.ResizeableResourceHashtableStorage.25 = type { i32, ptr }
%class.ResourceHashtableBase.24 = type <{ %class.ResizeableResourceHashtableStorage.25, i32, [4 x i8] }>
%class.ResizeableResourceHashtable.23 = type { %class.ResourceHashtableBase.base.26, i32 }
%class.ResourceHashtableBase.base.26 = type <{ %class.ResizeableResourceHashtableStorage.25, i32 }>

@_ZN10HeapShared16_disable_writingE = hidden global i8 0, align 1
@_ZN10HeapShared24_dumped_interned_stringsE = hidden global ptr null, align 8
@_ZL29archive_subgraph_entry_fields = internal global [13 x %struct.ArchivableStaticFieldInfo] zeroinitializer, align 16
@_ZL33fmg_archive_subgraph_entry_fields = internal global [4 x %struct.ArchivableStaticFieldInfo] zeroinitializer, align 16
@_ZN10HeapShared30_dump_time_subgraph_info_tableE = hidden global ptr null, align 8
@UseG1GC = external global i8, align 1
@UseCompressedClassPointers = external global i8, align 1
@_ZN9CDSConfig29_is_dumping_full_module_graphE = external global i8, align 1

; Function Attrs: mustprogress nounwind uwtable
define linkonce_odr hidden void @_ZN29FixedResourceHashtableStorageILj137EP5Klass17KlassSubGraphInfoEC2Ev(ptr noundef nonnull align 8 dereferenceable(1096) %0) unnamed_addr #1 comdat align 2 {
  %2 = alloca ptr, align 8
  store ptr %0, ptr %2, align 8
  %3 = load ptr, ptr %2, align 8
  %4 = getelementptr inbounds %class.FixedResourceHashtableStorage.29, ptr %3, i32 0, i32 0
  %5 = getelementptr inbounds [137 x ptr], ptr %4, i64 0, i64 0
  call void @llvm.memset.p0.i64(ptr align 8 %5, i8 0, i64 1096, i1 false)
  ret void
}

; Function Attrs: mustprogress nounwind uwtable
define linkonce_odr hidden noundef ptr @_ZN34ResizeableResourceHashtableStorageIP7oopDescbLN6AnyObj15allocation_typeE2EL8MEMFLAGS13EE11alloc_tableEj(ptr noundef nonnull align 8 dereferenceable(16) %0, i32 noundef %1) #1 comdat align 2 {
  %3 = alloca ptr, align 8
  %4 = alloca i32, align 4
  %5 = alloca ptr, align 8
  store ptr %0, ptr %3, align 8
  store i32 %1, ptr %4, align 4
  %6 = load i32, ptr %4, align 4
  %7 = zext i32 %6 to i64
  %8 = mul i64 %7, 8
  %9 = call noundef ptr @_Z12AllocateHeapm8MEMFLAGSN17AllocFailStrategy13AllocFailEnumE(i64 noundef %8, i8 noundef zeroext 13, i32 noundef 0)
  store ptr %9, ptr %5, align 8
  %10 = load ptr, ptr %5, align 8
  %11 = load i32, ptr %4, align 4
  %12 = zext i32 %11 to i64
  %13 = mul i64 %12, 8
  call void @llvm.memset.p0.i64(ptr align 8 %10, i8 0, i64 %13, i1 false)
  %14 = load ptr, ptr %5, align 8
  ret ptr %14
}

; Function Attrs: mustprogress nounwind uwtable
define linkonce_odr hidden void @_ZN21ResourceHashtableBaseI29FixedResourceHashtableStorageILj137EP5Klass17KlassSubGraphInfoES2_S3_LN6AnyObj15allocation_typeE2EL8MEMFLAGS13EXadL_Z29DumpTimeSharedClassTable_hashIS1_EjRKPT_EEXadL_Z16primitive_equalsIS2_EbRKS9_SF_EEEC2Ev(ptr noundef nonnull align 8 dereferenceable(1100) %0) unnamed_addr #1 comdat align 2 {
  %2 = alloca ptr, align 8
  store ptr %0, ptr %2, align 8
  %3 = load ptr, ptr %2, align 8
  call void @_ZN29FixedResourceHashtableStorageILj137EP5Klass17KlassSubGraphInfoEC2Ev(ptr noundef nonnull align 8 dereferenceable(1096) %3)
  %4 = getelementptr inbounds %class.ResourceHashtableBase.28, ptr %3, i32 0, i32 1
  store i32 0, ptr %4, align 8
  ret void
}

; Function Attrs: mustprogress nounwind uwtable
define linkonce_odr hidden void @_ZN34ResizeableResourceHashtableStorageIP7oopDescbLN6AnyObj15allocation_typeE2EL8MEMFLAGS13EEC2Ej(ptr noundef nonnull align 8 dereferenceable(16) %0, i32 noundef %1) unnamed_addr #1 comdat align 2 {
  %3 = alloca ptr, align 8
  %4 = alloca i32, align 4
  store ptr %0, ptr %3, align 8
  store i32 %1, ptr %4, align 4
  %5 = load ptr, ptr %3, align 8
  %6 = load i32, ptr %4, align 4
  %7 = getelementptr inbounds %class.ResizeableResourceHashtableStorage.25, ptr %5, i32 0, i32 0
  store i32 %6, ptr %7, align 8
  %8 = load i32, ptr %4, align 4
  %9 = call noundef ptr @_ZN34ResizeableResourceHashtableStorageIP7oopDescbLN6AnyObj15allocation_typeE2EL8MEMFLAGS13EE11alloc_tableEj(ptr noundef nonnull align 8 dereferenceable(16) %5, i32 noundef %8)
  %10 = getelementptr inbounds %class.ResizeableResourceHashtableStorage.25, ptr %5, i32 0, i32 1
  store ptr %9, ptr %10, align 8
  ret void
}

; Function Attrs: mustprogress nounwind uwtable
define linkonce_odr hidden void @_ZN17ResourceHashtableIP5Klass17KlassSubGraphInfoLj137ELN6AnyObj15allocation_typeE2EL8MEMFLAGS13EXadL_Z29DumpTimeSharedClassTable_hashIS0_EjRKPT_EEXadL_Z16primitive_equalsIS1_EbRKS7_SD_EEEC2Ev(ptr noundef nonnull align 8 dereferenceable(1100) %0) unnamed_addr #1 comdat align 2 {
  %2 = alloca ptr, align 8
  store ptr %0, ptr %2, align 8
  %3 = load ptr, ptr %2, align 8
  call void @_ZN21ResourceHashtableBaseI29FixedResourceHashtableStorageILj137EP5Klass17KlassSubGraphInfoES2_S3_LN6AnyObj15allocation_typeE2EL8MEMFLAGS13EXadL_Z29DumpTimeSharedClassTable_hashIS1_EjRKPT_EEXadL_Z16primitive_equalsIS2_EbRKS9_SF_EEEC2Ev(ptr noundef nonnull align 8 dereferenceable(1100) %3)
  ret void
}

; Function Attrs: mustprogress nounwind uwtable
define linkonce_odr hidden void @_ZN21ResourceHashtableBaseI34ResizeableResourceHashtableStorageIP7oopDescbLN6AnyObj15allocation_typeE2EL8MEMFLAGS13EES2_bLS4_2ELS5_13EXadL_ZN10HeapShared15string_oop_hashERKS2_EEXadL_Z16primitive_equalsIS2_EbRKT_SD_EEEC2Ej(ptr noundef nonnull align 8 dereferenceable(20) %0, i32 noundef %1) unnamed_addr #1 comdat align 2 {
  %3 = alloca ptr, align 8
  %4 = alloca i32, align 4
  store ptr %0, ptr %3, align 8
  store i32 %1, ptr %4, align 4
  %5 = load ptr, ptr %3, align 8
  %6 = load i32, ptr %4, align 4
  call void @_ZN34ResizeableResourceHashtableStorageIP7oopDescbLN6AnyObj15allocation_typeE2EL8MEMFLAGS13EEC2Ej(ptr noundef nonnull align 8 dereferenceable(16) %5, i32 noundef %6)
  %7 = getelementptr inbounds %class.ResourceHashtableBase.24, ptr %5, i32 0, i32 1
  store i32 0, ptr %7, align 8
  ret void
}

; Function Attrs: mustprogress nounwind uwtable
define linkonce_odr hidden noundef zeroext i1 @_ZN9CDSConfig28is_dumping_full_module_graphEv() #1 comdat align 2 {
  %1 = load i8, ptr @_ZN9CDSConfig29_is_dumping_full_module_graphE, align 1
  %2 = trunc i8 %1 to i1
  ret i1 %2
}

; Function Attrs: mustprogress nounwind uwtable
define linkonce_odr hidden void @_ZN10HeapShared30DumpTimeKlassSubGraphInfoTableC2Ev(ptr noundef nonnull align 8 dereferenceable(1104) %0) unnamed_addr #1 comdat align 2 {
  %2 = alloca ptr, align 8
  store ptr %0, ptr %2, align 8
  %3 = load ptr, ptr %2, align 8
  call void @_ZN17ResourceHashtableIP5Klass17KlassSubGraphInfoLj137ELN6AnyObj15allocation_typeE2EL8MEMFLAGS13EXadL_Z29DumpTimeSharedClassTable_hashIS0_EjRKPT_EEXadL_Z16primitive_equalsIS1_EbRKS7_SD_EEEC2Ev(ptr noundef nonnull align 8 dereferenceable(1100) %3)
  ret void
}

; Function Attrs: mustprogress nounwind uwtable
define linkonce_odr hidden void @_ZN27ResizeableResourceHashtableIP7oopDescbLN6AnyObj15allocation_typeE2EL8MEMFLAGS13EXadL_ZN10HeapShared15string_oop_hashERKS1_EEXadL_Z16primitive_equalsIS1_EbRKT_SB_EEEC2Ejj(ptr noundef nonnull align 8 dereferenceable(24) %0, i32 noundef %1, i32 noundef %2) unnamed_addr #1 comdat align 2 {
  %4 = alloca ptr, align 8
  %5 = alloca i32, align 4
  %6 = alloca i32, align 4
  store ptr %0, ptr %4, align 8
  store i32 %1, ptr %5, align 4
  store i32 %2, ptr %6, align 4
  %7 = load ptr, ptr %4, align 8
  %8 = load i32, ptr %5, align 4
  call void @_ZN21ResourceHashtableBaseI34ResizeableResourceHashtableStorageIP7oopDescbLN6AnyObj15allocation_typeE2EL8MEMFLAGS13EES2_bLS4_2ELS5_13EXadL_ZN10HeapShared15string_oop_hashERKS2_EEXadL_Z16primitive_equalsIS2_EbRKT_SD_EEEC2Ej(ptr noundef nonnull align 8 dereferenceable(20) %7, i32 noundef %8)
  %9 = getelementptr inbounds %class.ResizeableResourceHashtable.23, ptr %7, i32 0, i32 1
  %10 = load i32, ptr %6, align 4
  store i32 %10, ptr %9, align 4
  ret void
}

; Function Attrs: mustprogress nounwind uwtable
define linkonce_odr hidden noundef zeroext i1 @_ZNK12ThreadShadow21has_pending_exceptionEv(ptr noundef nonnull align 8 dereferenceable(28) %0) #1 comdat align 2 {
  %2 = alloca ptr, align 8
  store ptr %0, ptr %2, align 8
  %3 = load ptr, ptr %2, align 8
  %4 = getelementptr inbounds %class.ThreadShadow, ptr %3, i32 0, i32 1
  %5 = load ptr, ptr %4, align 8
  %6 = icmp ne ptr %5, null
  ret i1 %6
}

; Function Attrs: mustprogress nounwind uwtable
define hidden void @_ZN10HeapShared26init_subgraph_entry_fieldsEP10JavaThread(ptr noundef %0) #1 align 2 {
  %2 = alloca ptr, align 8
  store ptr %0, ptr %2, align 8
  %3 = call noundef ptr @_ZN6AnyObjnwEm8MEMFLAGS(i64 noundef 1104, i8 noundef zeroext 1) #11
  %4 = icmp eq ptr %3, null
  br i1 %4, label %6, label %5

5:                                                ; preds = %1
  call void @llvm.memset.p0.i64(ptr align 8 %3, i8 0, i64 1104, i1 false)
  call void @_ZN10HeapShared30DumpTimeKlassSubGraphInfoTableC2Ev(ptr noundef nonnull align 8 dereferenceable(1104) %3)
  br label %6

6:                                                ; preds = %5, %1
  %7 = phi ptr [ %3, %5 ], [ null, %1 ]
  store ptr %7, ptr @_ZN10HeapShared30_dump_time_subgraph_info_tableE, align 8
  %8 = load ptr, ptr %2, align 8
  call void @_ZN10HeapShared26init_subgraph_entry_fieldsEP25ArchivableStaticFieldInfoP10JavaThread(ptr noundef @_ZL29archive_subgraph_entry_fields, ptr noundef %8)
  %9 = load ptr, ptr %2, align 8
  %10 = call noundef zeroext i1 @_ZNK12ThreadShadow21has_pending_exceptionEv(ptr noundef nonnull align 8 dereferenceable(28) %9)
  br i1 %10, label %11, label %12

11:                                               ; preds = %6
  br label %20

12:                                               ; preds = %6
  %13 = call noundef zeroext i1 @_ZN9CDSConfig28is_dumping_full_module_graphEv()
  br i1 %13, label %14, label %20

14:                                               ; preds = %12
  %15 = load ptr, ptr %2, align 8
  call void @_ZN10HeapShared26init_subgraph_entry_fieldsEP25ArchivableStaticFieldInfoP10JavaThread(ptr noundef @_ZL33fmg_archive_subgraph_entry_fields, ptr noundef %15)
  %16 = load ptr, ptr %2, align 8
  %17 = call noundef zeroext i1 @_ZNK12ThreadShadow21has_pending_exceptionEv(ptr noundef nonnull align 8 dereferenceable(28) %16)
  br i1 %17, label %18, label %19

18:                                               ; preds = %14
  br label %20

19:                                               ; preds = %14
  br label %20

20:                                               ; preds = %19, %18, %12, %11
  ret void
}

; Function Attrs: mustprogress nounwind uwtable
define linkonce_odr hidden void @_ZN21DumpedInternedStringsC2Ejj(ptr noundef nonnull align 8 dereferenceable(24) %0, i32 noundef %1, i32 noundef %2) unnamed_addr #1 comdat align 2 {
  %4 = alloca ptr, align 8
  %5 = alloca i32, align 4
  %6 = alloca i32, align 4
  store ptr %0, ptr %4, align 8
  store i32 %1, ptr %5, align 4
  store i32 %2, ptr %6, align 4
  %7 = load ptr, ptr %4, align 8
  %8 = load i32, ptr %5, align 4
  %9 = load i32, ptr %6, align 4
  call void @_ZN27ResizeableResourceHashtableIP7oopDescbLN6AnyObj15allocation_typeE2EL8MEMFLAGS13EXadL_ZN10HeapShared15string_oop_hashERKS1_EEXadL_Z16primitive_equalsIS1_EbRKT_SB_EEEC2Ejj(ptr noundef nonnull align 8 dereferenceable(24) %7, i32 noundef %8, i32 noundef %9)
  ret void
}

; Function Attrs: mustprogress nounwind uwtable
define linkonce_odr hidden void @_ZN10HeapShared16setup_test_classEPKc(ptr noundef %0) #1 comdat align 2 {
  %2 = alloca ptr, align 8
  store ptr %0, ptr %2, align 8
  ret void
}

; Function Attrs: mustprogress nounwind uwtable
define linkonce_odr hidden noundef zeroext i1 @_ZN10HeapShared9can_writeEv() #1 comdat align 2 {
  %1 = alloca i1, align 1
  %2 = load i8, ptr @_ZN10HeapShared16_disable_writingE, align 1
  %3 = trunc i8 %2 to i1
  br i1 %3, label %4, label %5

4:                                                ; preds = %0
  store i1 false, ptr %1, align 1
  br label %13

5:                                                ; preds = %0
  %6 = load i8, ptr @UseG1GC, align 1
  %7 = trunc i8 %6 to i1
  br i1 %7, label %8, label %11

8:                                                ; preds = %5
  %9 = load i8, ptr @UseCompressedClassPointers, align 1
  %10 = trunc i8 %9 to i1
  br label %11

11:                                               ; preds = %8, %5
  %12 = phi i1 [ false, %5 ], [ %10, %8 ]
  store i1 %12, ptr %1, align 1
  br label %13

13:                                               ; preds = %11, %4
  %14 = load i1, ptr %1, align 1
  ret i1 %14
}

; Function Attrs: mustprogress nounwind uwtable
define hidden void @_ZN10HeapShared16init_for_dumpingEP10JavaThread(ptr noundef %0) #1 align 2 {
  %2 = alloca ptr, align 8
  store ptr %0, ptr %2, align 8
  %3 = call noundef zeroext i1 @_ZN10HeapShared9can_writeEv()
  br i1 %3, label %4, label %15

4:                                                ; preds = %1
  call void @_ZN10HeapShared16setup_test_classEPKc(ptr noundef null)
  %5 = call noundef ptr @_ZN6AnyObjnwEm8MEMFLAGS(i64 noundef 24, i8 noundef zeroext 1) #11
  %6 = icmp eq ptr %5, null
  br i1 %6, label %8, label %7

7:                                                ; preds = %4
  call void @_ZN21DumpedInternedStringsC2Ejj(ptr noundef nonnull align 8 dereferenceable(24) %5, i32 noundef 15889, i32 noundef 1000000)
  br label %8

8:                                                ; preds = %7, %4
  %9 = phi ptr [ %5, %7 ], [ null, %4 ]
  store ptr %9, ptr @_ZN10HeapShared24_dumped_interned_stringsE, align 8
  %10 = load ptr, ptr %2, align 8
  call void @_ZN10HeapShared26init_subgraph_entry_fieldsEP10JavaThread(ptr noundef %10)
  %11 = load ptr, ptr %2, align 8
  %12 = call noundef zeroext i1 @_ZNK12ThreadShadow21has_pending_exceptionEv(ptr noundef nonnull align 8 dereferenceable(28) %11)
  br i1 %12, label %13, label %14

13:                                               ; preds = %8
  br label %15

14:                                               ; preds = %8
  br label %15

15:                                               ; preds = %14, %13, %1
  ret void
}