; Function Attrs: mustprogress nounwind uwtable
define hidden void @_ZN10HeapShared16init_for_dumpingEP10JavaThread(ptr noundef %0) local_unnamed_addr #2 align 2 {
  %2 = load i8, ptr @_ZN10HeapShared16_disable_writingE, align 1
  %3 = trunc i8 %2 to i1
  br i1 %3, label %_ZN10HeapShared9can_writeEv.exit.thread, label %_ZN10HeapShared9can_writeEv.exit

_ZN10HeapShared9can_writeEv.exit:                 ; preds = %1
  %4 = load i8, ptr @UseG1GC, align 1
  %5 = trunc i8 %4 to i1
  %6 = load i8, ptr @UseCompressedClassPointers, align 1
  %7 = trunc i8 %6 to i1
  %8 = select i1 %5, i1 %7, i1 false
  br i1 %8, label %9, label %_ZN10HeapShared9can_writeEv.exit.thread

9:                                                ; preds = %_ZN10HeapShared9can_writeEv.exit
  %10 = tail call noundef ptr @_ZN6AnyObjnwEm8MEMFLAGS(i64 noundef 24, i8 noundef zeroext 1) #20
  %11 = icmp eq ptr %10, null
  br i1 %11, label %17, label %12

12:                                               ; preds = %9
  store i32 15889, ptr %10, align 8
  %13 = tail call noundef ptr @_Z12AllocateHeapm8MEMFLAGSN17AllocFailStrategy13AllocFailEnumE(i64 noundef 127112, i8 noundef zeroext 13, i32 noundef 0) #20
  tail call void @llvm.memset.p0.i64(ptr noundef nonnull align 8 dereferenceable(127112) %13, i8 0, i64 127112, i1 false)
  %14 = getelementptr inbounds i8, ptr %10, i64 8
  store ptr %13, ptr %14, align 8
  %15 = getelementptr inbounds i8, ptr %10, i64 16
  store i32 0, ptr %15, align 8
  %16 = getelementptr inbounds i8, ptr %10, i64 20
  store i32 1000000, ptr %16, align 4
  br label %17

17:                                               ; preds = %12, %9
  store ptr %10, ptr @_ZN10HeapShared24_dumped_interned_stringsE, align 8
  %18 = tail call noundef ptr @_ZN6AnyObjnwEm8MEMFLAGS(i64 noundef 1104, i8 noundef zeroext 1) #20
  %19 = icmp eq ptr %18, null
  br i1 %19, label %21, label %20

20:                                               ; preds = %17
  tail call void @llvm.memset.p0.i64(ptr noundef nonnull align 8 dereferenceable(1104) %18, i8 0, i64 1104, i1 false)
  br label %21

21:                                               ; preds = %20, %17
  store ptr %18, ptr @_ZN10HeapShared30_dump_time_subgraph_info_tableE, align 8
  tail call void @_ZN10HeapShared26init_subgraph_entry_fieldsEP25ArchivableStaticFieldInfoP10JavaThread(ptr noundef nonnull @_ZL29archive_subgraph_entry_fields, ptr noundef %0)
  %22 = getelementptr inbounds i8, ptr %0, i64 8
  %23 = load ptr, ptr %22, align 8
  %.not.i = icmp eq ptr %23, null
  br i1 %.not.i, label %24, label %_ZN10HeapShared9can_writeEv.exit.thread

24:                                               ; preds = %21
  %25 = load i8, ptr @_ZN9CDSConfig29_is_dumping_full_module_graphE, align 1
  %26 = trunc i8 %25 to i1
  br i1 %26, label %27, label %_ZN10HeapShared9can_writeEv.exit.thread

27:                                               ; preds = %24
  tail call void @_ZN10HeapShared26init_subgraph_entry_fieldsEP25ArchivableStaticFieldInfoP10JavaThread(ptr noundef nonnull @_ZL33fmg_archive_subgraph_entry_fields, ptr noundef nonnull %0)
  br label %_ZN10HeapShared9can_writeEv.exit.thread

_ZN10HeapShared9can_writeEv.exit.thread:          ; preds = %27, %24, %21, %1, %_ZN10HeapShared9can_writeEv.exit
  ret void
}